target datalayout = "e-m:e-p270:32:32-p271:32:32-p272:64:64-i64:64-i128:128-f80:128-n8:16:32:64-S128"
target triple = "x86_64-pc-linux-gnu"

%struct.TT_GraphicsState_ = type { i16, i16, i16, %struct.FT_UnitVector_, %struct.FT_UnitVector_, %struct.FT_UnitVector_, i64, i64, i32, i8, i64, i64, i64, i16, i16, i8, i8, i32, i16, i16, i16 }
%struct.FT_UnitVector_ = type { i16, i16 }
%struct.FT_ListRec_ = type { ptr, ptr }
%struct.TT_GlyphZoneRec_ = type { ptr, i16, i16, i16, i16, ptr, ptr, ptr, ptr, ptr, i16 }
%struct.FT_FaceRec_ = type { i64, i64, i64, i64, i64, ptr, ptr, i32, ptr, i32, ptr, %struct.FT_Generic_, %struct.FT_BBox_, i16, i16, i16, i16, i16, i16, i16, i16, ptr, ptr, ptr, ptr, ptr, ptr, %struct.FT_ListRec_, %struct.FT_Generic_, ptr, ptr }
%struct.FT_BBox_ = type { i64, i64, i64, i64 }
%struct.FT_Generic_ = type { ptr, ptr }
%struct.TT_FaceRec_ = type { %struct.FT_FaceRec_, %struct.TTC_HeaderRec_, i64, i16, ptr, %struct.TT_Header_, %struct.TT_HoriHeader_, %struct.TT_MaxProfile_, i8, %struct.TT_VertHeader_, i16, %struct.TT_NameTableRec_, %struct.TT_OS2_, %struct.TT_Postscript_, ptr, i64, ptr, ptr, ptr, ptr, ptr, ptr, ptr, ptr, ptr, ptr, ptr, ptr, %struct.TT_Gasp_, %struct.TT_PCLT_, i64, ptr, %struct.TT_Post_NamesRec_, %struct.FT_Palette_Data_, i16, ptr, i8, %struct.FT_Color_, i64, ptr, i64, ptr, i64, ptr, ptr, %struct.FT_Generic_, ptr, i64, i64, i8, i8, ptr, i32, ptr, i32, i32, ptr, i64, i64, i64, ptr, ptr, i64, i32, i64, ptr, ptr, i64, i32, i32, ptr, ptr, i64, i32, i32, i32, %struct.TT_BDFRec_, i64, i64, i64, i64, ptr, ptr, ptr }
%struct.TTC_HeaderRec_ = type { i64, i64, i64, ptr }
%struct.TT_Header_ = type { i64, i64, i64, i64, i16, i16, [2 x i64], [2 x i64], i16, i16, i16, i16, i16, i16, i16, i16, i16 }
%struct.TT_HoriHeader_ = type { i64, i16, i16, i16, i16, i16, i16, i16, i16, i16, i16, [4 x i16], i16, i16, ptr, ptr }
%struct.TT_MaxProfile_ = type { i64, i16, i16, i16, i16, i16, i16, i16, i16, i16, i16, i16, i16, i16, i16 }
%struct.TT_VertHeader_ = type { i64, i16, i16, i16, i16, i16, i16, i16, i16, i16, i16, [4 x i16], i16, i16, ptr, ptr }
%struct.TT_NameTableRec_ = type { i16, i32, i32, ptr, i32, ptr, ptr }
%struct.TT_OS2_ = type { i16, i16, i16, i16, i16, i16, i16, i16, i16, i16, i16, i16, i16, i16, i16, i16, [10 x i8], i64, i64, i64, i64, [4 x i8], i16, i16, i16, i16, i16, i16, i16, i16, i64, i64, i16, i16, i16, i16, i16, i16, i16 }
%struct.TT_Postscript_ = type { i64, i64, i16, i16, i64, i64, i64, i64, i64 }
%struct.TT_Gasp_ = type { i16, i16, ptr }
%struct.TT_PCLT_ = type { i64, i64, i16, i16, i16, i16, i16, i16, [16 x i8], [8 x i8], [6 x i8], i8, i8, i8, i8 }
%struct.TT_Post_NamesRec_ = type { i8, i16, i16, ptr, ptr }
%struct.FT_Palette_Data_ = type { i16, ptr, ptr, i16, ptr }
%struct.FT_Color_ = type { i8, i8, i8, i8 }
%struct.TT_BDFRec_ = type { ptr, ptr, ptr, i64, i32, i8 }
%struct.TT_SizeRec_ = type { %struct.FT_SizeRec_, ptr, %struct.FT_Size_Metrics_, %struct.TT_Size_Metrics_, ptr, i64, i64, i32, i32, ptr, i32, i32, ptr, i32, i32, [3 x %struct.TT_CodeRange_], %struct.TT_GraphicsState_, i64, ptr, i16, ptr, %struct.TT_GlyphZoneRec_, ptr, i32, i32 }
%struct.FT_SizeRec_ = type { ptr, %struct.FT_Generic_, %struct.FT_Size_Metrics_, ptr }
%struct.FT_Size_Metrics_ = type { i16, i16, i64, i64, i64, i64, i64, i64 }
%struct.TT_Size_Metrics_ = type { i64, i64, i16, i64, i64, [4 x i64], i8, i8, i8 }
%struct.TT_CodeRange_ = type { ptr, i64 }
%struct.TT_ExecContextRec_ = type { ptr, ptr, ptr, i32, i64, i64, ptr, i64, i64, %struct.TT_GlyphZoneRec_, %struct.TT_GlyphZoneRec_, %struct.TT_GlyphZoneRec_, %struct.TT_GlyphZoneRec_, %struct.TT_GlyphZoneRec_, i64, %struct.FT_Size_Metrics_, %struct.TT_Size_Metrics_, %struct.TT_GraphicsState_, i32, i32, ptr, i64, i64, i8, i32, i8, i64, ptr, i64, ptr, i32, ptr, i32, i32, ptr, i32, i32, ptr, i32, i32, i32, i32, ptr, i16, i16, [3 x %struct.TT_CodeRange_], i16, ptr, i16, ptr, i64, i64, i64, i8, %struct.TT_GraphicsState_, i8, i8, i64, ptr, ptr, ptr, ptr, ptr, ptr, ptr, ptr, ptr, ptr, i8, i8, i8, i8, i8, i8, i8, i64, i64, i64, i64 }

; Function Attrs: nounwind uwtable
define internal void @tt_glyphzone_done(ptr noundef %0) #0 {
  %2 = alloca ptr, align 8
  %3 = alloca ptr, align 8
  store ptr %0, ptr %2, align 8
  %4 = load ptr, ptr %2, align 8
  %5 = getelementptr inbounds %struct.TT_GlyphZoneRec_, ptr %4, i32 0, i32 0
  %6 = load ptr, ptr %5, align 8
  store ptr %6, ptr %3, align 8
  %7 = load ptr, ptr %3, align 8
  %8 = icmp ne ptr %7, null
  br i1 %8, label %9, label %60

9:                                                ; preds = %1
  br label %10

10:                                               ; preds = %9
  %11 = load ptr, ptr %3, align 8
  %12 = load ptr, ptr %2, align 8
  %13 = getelementptr inbounds %struct.TT_GlyphZoneRec_, ptr %12, i32 0, i32 9
  %14 = load ptr, ptr %13, align 8
  call void @ft_mem_free(ptr noundef %11, ptr noundef %14)
  %15 = load ptr, ptr %2, align 8
  %16 = getelementptr inbounds %struct.TT_GlyphZoneRec_, ptr %15, i32 0, i32 9
  store ptr null, ptr %16, align 8
  br label %17

17:                                               ; preds = %10
  br label %18

18:                                               ; preds = %17
  %19 = load ptr, ptr %3, align 8
  %20 = load ptr, ptr %2, align 8
  %21 = getelementptr inbounds %struct.TT_GlyphZoneRec_, ptr %20, i32 0, i32 8
  %22 = load ptr, ptr %21, align 8
  call void @ft_mem_free(ptr noundef %19, ptr noundef %22)
  %23 = load ptr, ptr %2, align 8
  %24 = getelementptr inbounds %struct.TT_GlyphZoneRec_, ptr %23, i32 0, i32 8
  store ptr null, ptr %24, align 8
  br label %25

25:                                               ; preds = %18
  br label %26

26:                                               ; preds = %25
  %27 = load ptr, ptr %3, align 8
  %28 = load ptr, ptr %2, align 8
  %29 = getelementptr inbounds %struct.TT_GlyphZoneRec_, ptr %28, i32 0, i32 6
  %30 = load ptr, ptr %29, align 8
  call void @ft_mem_free(ptr noundef %27, ptr noundef %30)
  %31 = load ptr, ptr %2, align 8
  %32 = getelementptr inbounds %struct.TT_GlyphZoneRec_, ptr %31, i32 0, i32 6
  store ptr null, ptr %32, align 8
  br label %33

33:                                               ; preds = %26
  br label %34

34:                                               ; preds = %33
  %35 = load ptr, ptr %3, align 8
  %36 = load ptr, ptr %2, align 8
  %37 = getelementptr inbounds %struct.TT_GlyphZoneRec_, ptr %36, i32 0, i32 5
  %38 = load ptr, ptr %37, align 8
  call void @ft_mem_free(ptr noundef %35, ptr noundef %38)
  %39 = load ptr, ptr %2, align 8
  %40 = getelementptr inbounds %struct.TT_GlyphZoneRec_, ptr %39, i32 0, i32 5
  store ptr null, ptr %40, align 8
  br label %41

41:                                               ; preds = %34
  br label %42

42:                                               ; preds = %41
  %43 = load ptr, ptr %3, align 8
  %44 = load ptr, ptr %2, align 8
  %45 = getelementptr inbounds %struct.TT_GlyphZoneRec_, ptr %44, i32 0, i32 7
  %46 = load ptr, ptr %45, align 8
  call void @ft_mem_free(ptr noundef %43, ptr noundef %46)
  %47 = load ptr, ptr %2, align 8
  %48 = getelementptr inbounds %struct.TT_GlyphZoneRec_, ptr %47, i32 0, i32 7
  store ptr null, ptr %48, align 8
  br label %49

49:                                               ; preds = %42
  %50 = load ptr, ptr %2, align 8
  %51 = getelementptr inbounds %struct.TT_GlyphZoneRec_, ptr %50, i32 0, i32 3
  store i16 0, ptr %51, align 4
  %52 = load ptr, ptr %2, align 8
  %53 = getelementptr inbounds %struct.TT_GlyphZoneRec_, ptr %52, i32 0, i32 1
  store i16 0, ptr %53, align 8
  %54 = load ptr, ptr %2, align 8
  %55 = getelementptr inbounds %struct.TT_GlyphZoneRec_, ptr %54, i32 0, i32 4
  store i16 0, ptr %55, align 2
  %56 = load ptr, ptr %2, align 8
  %57 = getelementptr inbounds %struct.TT_GlyphZoneRec_, ptr %56, i32 0, i32 2
  store i16 0, ptr %57, align 2
  %58 = load ptr, ptr %2, align 8
  %59 = getelementptr inbounds %struct.TT_GlyphZoneRec_, ptr %58, i32 0, i32 0
  store ptr null, ptr %59, align 8
  br label %60

60:                                               ; preds = %49, %1
  ret void
}

; Function Attrs: nounwind uwtable
define internal void @TT_Done_Context(ptr noundef %0) #0 {
  %2 = alloca ptr, align 8
  %3 = alloca ptr, align 8
  store ptr %0, ptr %2, align 8
  %4 = load ptr, ptr %2, align 8
  %5 = getelementptr inbounds %struct.TT_ExecContextRec_, ptr %4, i32 0, i32 2
  %6 = load ptr, ptr %5, align 8
  store ptr %6, ptr %3, align 8
  %7 = load ptr, ptr %2, align 8
  %8 = getelementptr inbounds %struct.TT_ExecContextRec_, ptr %7, i32 0, i32 43
  store i16 0, ptr %8, align 8
  %9 = load ptr, ptr %2, align 8
  %10 = getelementptr inbounds %struct.TT_ExecContextRec_, ptr %9, i32 0, i32 44
  store i16 0, ptr %10, align 2
  br label %11

11:                                               ; preds = %1
  %12 = load ptr, ptr %3, align 8
  %13 = load ptr, ptr %2, align 8
  %14 = getelementptr inbounds %struct.TT_ExecContextRec_, ptr %13, i32 0, i32 6
  %15 = load ptr, ptr %14, align 8
  call void @ft_mem_free(ptr noundef %12, ptr noundef %15)
  %16 = load ptr, ptr %2, align 8
  %17 = getelementptr inbounds %struct.TT_ExecContextRec_, ptr %16, i32 0, i32 6
  store ptr null, ptr %17, align 8
  br label %18

18:                                               ; preds = %11
  %19 = load ptr, ptr %2, align 8
  %20 = getelementptr inbounds %struct.TT_ExecContextRec_, ptr %19, i32 0, i32 5
  store i64 0, ptr %20, align 8
  br label %21

21:                                               ; preds = %18
  %22 = load ptr, ptr %3, align 8
  %23 = load ptr, ptr %2, align 8
  %24 = getelementptr inbounds %struct.TT_ExecContextRec_, ptr %23, i32 0, i32 29
  %25 = load ptr, ptr %24, align 8
  call void @ft_mem_free(ptr noundef %22, ptr noundef %25)
  %26 = load ptr, ptr %2, align 8
  %27 = getelementptr inbounds %struct.TT_ExecContextRec_, ptr %26, i32 0, i32 29
  store ptr null, ptr %27, align 8
  br label %28

28:                                               ; preds = %21
  %29 = load ptr, ptr %2, align 8
  %30 = getelementptr inbounds %struct.TT_ExecContextRec_, ptr %29, i32 0, i32 28
  store i64 0, ptr %30, align 8
  br label %31

31:                                               ; preds = %28
  %32 = load ptr, ptr %3, align 8
  %33 = load ptr, ptr %2, align 8
  %34 = getelementptr inbounds %struct.TT_ExecContextRec_, ptr %33, i32 0, i32 49
  %35 = load ptr, ptr %34, align 8
  call void @ft_mem_free(ptr noundef %32, ptr noundef %35)
  %36 = load ptr, ptr %2, align 8
  %37 = getelementptr inbounds %struct.TT_ExecContextRec_, ptr %36, i32 0, i32 49
  store ptr null, ptr %37, align 8
  br label %38

38:                                               ; preds = %31
  %39 = load ptr, ptr %2, align 8
  %40 = getelementptr inbounds %struct.TT_ExecContextRec_, ptr %39, i32 0, i32 48
  store i16 0, ptr %40, align 8
  br label %41

41:                                               ; preds = %38
  %42 = load ptr, ptr %3, align 8
  %43 = load ptr, ptr %2, align 8
  %44 = getelementptr inbounds %struct.TT_ExecContextRec_, ptr %43, i32 0, i32 42
  %45 = load ptr, ptr %44, align 8
  call void @ft_mem_free(ptr noundef %42, ptr noundef %45)
  %46 = load ptr, ptr %2, align 8
  %47 = getelementptr inbounds %struct.TT_ExecContextRec_, ptr %46, i32 0, i32 42
  store ptr null, ptr %47, align 8
  br label %48

48:                                               ; preds = %41
  %49 = load ptr, ptr %2, align 8
  %50 = getelementptr inbounds %struct.TT_ExecContextRec_, ptr %49, i32 0, i32 41
  store i32 0, ptr %50, align 4
  %51 = load ptr, ptr %2, align 8
  %52 = getelementptr inbounds %struct.TT_ExecContextRec_, ptr %51, i32 0, i32 40
  store i32 0, ptr %52, align 8
  br label %53

53:                                               ; preds = %48
  %54 = load ptr, ptr %3, align 8
  %55 = load ptr, ptr %2, align 8
  %56 = getelementptr inbounds %struct.TT_ExecContextRec_, ptr %55, i32 0, i32 31
  %57 = load ptr, ptr %56, align 8
  call void @ft_mem_free(ptr noundef %54, ptr noundef %57)
  %58 = load ptr, ptr %2, align 8
  %59 = getelementptr inbounds %struct.TT_ExecContextRec_, ptr %58, i32 0, i32 31
  store ptr null, ptr %59, align 8
  br label %60

60:                                               ; preds = %53
  %61 = load ptr, ptr %2, align 8
  %62 = getelementptr inbounds %struct.TT_ExecContextRec_, ptr %61, i32 0, i32 30
  store i32 0, ptr %62, align 8
  %63 = load ptr, ptr %2, align 8
  %64 = getelementptr inbounds %struct.TT_ExecContextRec_, ptr %63, i32 0, i32 1
  store ptr null, ptr %64, align 8
  %65 = load ptr, ptr %2, align 8
  %66 = getelementptr inbounds %struct.TT_ExecContextRec_, ptr %65, i32 0, i32 0
  store ptr null, ptr %66, align 8
  br label %67

67:                                               ; preds = %60
  %68 = load ptr, ptr %3, align 8
  %69 = load ptr, ptr %2, align 8
  call void @ft_mem_free(ptr noundef %68, ptr noundef %69)
  store ptr null, ptr %2, align 8
  br label %70

70:                                               ; preds = %67
  ret void
}

; Function Attrs: nounwind uwtable
define internal void @tt_size_done_bytecode(ptr noundef %0) #0 {
  %2 = alloca ptr, align 8
  %3 = alloca ptr, align 8
  %4 = alloca ptr, align 8
  %5 = alloca ptr, align 8
  store ptr %0, ptr %2, align 8
  %6 = load ptr, ptr %2, align 8
  store ptr %6, ptr %3, align 8
  %7 = load ptr, ptr %2, align 8
  %8 = getelementptr inbounds %struct.FT_SizeRec_, ptr %7, i32 0, i32 0
  %9 = load ptr, ptr %8, align 8
  store ptr %9, ptr %4, align 8
  %10 = load ptr, ptr %4, align 8
  %11 = getelementptr inbounds %struct.TT_FaceRec_, ptr %10, i32 0, i32 0
  %12 = getelementptr inbounds %struct.FT_FaceRec_, ptr %11, i32 0, i32 25
  %13 = load ptr, ptr %12, align 8
  store ptr %13, ptr %5, align 8
  %14 = load ptr, ptr %3, align 8
  %15 = getelementptr inbounds %struct.TT_SizeRec_, ptr %14, i32 0, i32 22
  %16 = load ptr, ptr %15, align 8
  %17 = icmp ne ptr %16, null
  br i1 %17, label %18, label %24

18:                                               ; preds = %1
  %19 = load ptr, ptr %3, align 8
  %20 = getelementptr inbounds %struct.TT_SizeRec_, ptr %19, i32 0, i32 22
  %21 = load ptr, ptr %20, align 8
  call void @TT_Done_Context(ptr noundef %21)
  %22 = load ptr, ptr %3, align 8
  %23 = getelementptr inbounds %struct.TT_SizeRec_, ptr %22, i32 0, i32 22
  store ptr null, ptr %23, align 8
  br label %24

24:                                               ; preds = %18, %1
  br label %25

25:                                               ; preds = %24
  %26 = load ptr, ptr %5, align 8
  %27 = load ptr, ptr %3, align 8
  %28 = getelementptr inbounds %struct.TT_SizeRec_, ptr %27, i32 0, i32 18
  %29 = load ptr, ptr %28, align 8
  call void @ft_mem_free(ptr noundef %26, ptr noundef %29)
  %30 = load ptr, ptr %3, align 8
  %31 = getelementptr inbounds %struct.TT_SizeRec_, ptr %30, i32 0, i32 18
  store ptr null, ptr %31, align 8
  br label %32

32:                                               ; preds = %25
  %33 = load ptr, ptr %3, align 8
  %34 = getelementptr inbounds %struct.TT_SizeRec_, ptr %33, i32 0, i32 17
  store i64 0, ptr %34, align 8
  br label %35

35:                                               ; preds = %32
  %36 = load ptr, ptr %5, align 8
  %37 = load ptr, ptr %3, align 8
  %38 = getelementptr inbounds %struct.TT_SizeRec_, ptr %37, i32 0, i32 20
  %39 = load ptr, ptr %38, align 8
  call void @ft_mem_free(ptr noundef %36, ptr noundef %39)
  %40 = load ptr, ptr %3, align 8
  %41 = getelementptr inbounds %struct.TT_SizeRec_, ptr %40, i32 0, i32 20
  store ptr null, ptr %41, align 8
  br label %42

42:                                               ; preds = %35
  %43 = load ptr, ptr %3, align 8
  %44 = getelementptr inbounds %struct.TT_SizeRec_, ptr %43, i32 0, i32 19
  store i16 0, ptr %44, align 8
  %45 = load ptr, ptr %3, align 8
  %46 = getelementptr inbounds %struct.TT_SizeRec_, ptr %45, i32 0, i32 21
  call void @tt_glyphzone_done(ptr noundef %46)
  br label %47

47:                                               ; preds = %42
  %48 = load ptr, ptr %5, align 8
  %49 = load ptr, ptr %3, align 8
  %50 = getelementptr inbounds %struct.TT_SizeRec_, ptr %49, i32 0, i32 9
  %51 = load ptr, ptr %50, align 8
  call void @ft_mem_free(ptr noundef %48, ptr noundef %51)
  %52 = load ptr, ptr %3, align 8
  %53 = getelementptr inbounds %struct.TT_SizeRec_, ptr %52, i32 0, i32 9
  store ptr null, ptr %53, align 8
  br label %54

54:                                               ; preds = %47
  br label %55

55:                                               ; preds = %54
  %56 = load ptr, ptr %5, align 8
  %57 = load ptr, ptr %3, align 8
  %58 = getelementptr inbounds %struct.TT_SizeRec_, ptr %57, i32 0, i32 12
  %59 = load ptr, ptr %58, align 8
  call void @ft_mem_free(ptr noundef %56, ptr noundef %59)
  %60 = load ptr, ptr %3, align 8
  %61 = getelementptr inbounds %struct.TT_SizeRec_, ptr %60, i32 0, i32 12
  store ptr null, ptr %61, align 8
  br label %62

62:                                               ; preds = %55
  %63 = load ptr, ptr %3, align 8
  %64 = getelementptr inbounds %struct.TT_SizeRec_, ptr %63, i32 0, i32 7
  store i32 0, ptr %64, align 8
  %65 = load ptr, ptr %3, align 8
  %66 = getelementptr inbounds %struct.TT_SizeRec_, ptr %65, i32 0, i32 8
  store i32 0, ptr %66, align 4
  %67 = load ptr, ptr %3, align 8
  %68 = getelementptr inbounds %struct.TT_SizeRec_, ptr %67, i32 0, i32 10
  store i32 0, ptr %68, align 8
  %69 = load ptr, ptr %3, align 8
  %70 = getelementptr inbounds %struct.TT_SizeRec_, ptr %69, i32 0, i32 11
  store i32 0, ptr %70, align 4
  %71 = load ptr, ptr %3, align 8
  %72 = getelementptr inbounds %struct.TT_SizeRec_, ptr %71, i32 0, i32 13
  store i32 0, ptr %72, align 8
  %73 = load ptr, ptr %3, align 8
  %74 = getelementptr inbounds %struct.TT_SizeRec_, ptr %73, i32 0, i32 14
  store i32 0, ptr %74, align 4
  %75 = load ptr, ptr %3, align 8
  %76 = getelementptr inbounds %struct.TT_SizeRec_, ptr %75, i32 0, i32 23
  store i32 -1, ptr %76, align 8
  %77 = load ptr, ptr %3, align 8
  %78 = getelementptr inbounds %struct.TT_SizeRec_, ptr %77, i32 0, i32 24
  store i32 -1, ptr %78, align 4
  ret void
}