; Function Attrs: nounwind uwtable
define internal fastcc void @tt_size_done_bytecode(ptr nocapture noundef %0) unnamed_addr #2 {
  %2 = load ptr, ptr %0, align 8
  %3 = getelementptr inbounds i8, ptr %2, i64 184
  %4 = load ptr, ptr %3, align 8
  %5 = getelementptr inbounds i8, ptr %0, i64 536
  %6 = load ptr, ptr %5, align 8
  %.not = icmp eq ptr %6, null
  br i1 %.not, label %27, label %7

7:                                                ; preds = %1
  %8 = getelementptr inbounds i8, ptr %6, i64 16
  %9 = load ptr, ptr %8, align 8
  %10 = getelementptr inbounds i8, ptr %6, i64 784
  store i16 0, ptr %10, align 8
  %11 = getelementptr inbounds i8, ptr %6, i64 786
  store i16 0, ptr %11, align 2
  %12 = getelementptr inbounds i8, ptr %6, i64 48
  %13 = load ptr, ptr %12, align 8
  tail call void @ft_mem_free(ptr noundef %9, ptr noundef %13) #22
  %14 = getelementptr inbounds i8, ptr %6, i64 40
  %15 = getelementptr inbounds i8, ptr %6, i64 704
  tail call void @llvm.memset.p0.i64(ptr noundef nonnull align 8 dereferenceable(16) %14, i8 0, i64 16, i1 false)
  %16 = load ptr, ptr %15, align 8
  tail call void @ft_mem_free(ptr noundef %9, ptr noundef %16) #22
  %17 = getelementptr inbounds i8, ptr %6, i64 696
  %18 = getelementptr inbounds i8, ptr %6, i64 864
  tail call void @llvm.memset.p0.i64(ptr noundef nonnull align 8 dereferenceable(16) %17, i8 0, i64 16, i1 false)
  %19 = load ptr, ptr %18, align 8
  tail call void @ft_mem_free(ptr noundef %9, ptr noundef %19) #22
  store ptr null, ptr %18, align 8
  %20 = getelementptr inbounds i8, ptr %6, i64 856
  store i16 0, ptr %20, align 8
  %21 = getelementptr inbounds i8, ptr %6, i64 776
  %22 = load ptr, ptr %21, align 8
  tail call void @ft_mem_free(ptr noundef %9, ptr noundef %22) #22
  %23 = getelementptr inbounds i8, ptr %6, i64 768
  %24 = getelementptr inbounds i8, ptr %6, i64 720
  tail call void @llvm.memset.p0.i64(ptr noundef nonnull align 8 dereferenceable(16) %23, i8 0, i64 16, i1 false)
  %25 = load ptr, ptr %24, align 8
  tail call void @ft_mem_free(ptr noundef %9, ptr noundef %25) #22
  store ptr null, ptr %24, align 8
  %26 = getelementptr inbounds i8, ptr %6, i64 712
  store i32 0, ptr %26, align 8
  tail call void @llvm.memset.p0.i64(ptr noundef nonnull align 8 dereferenceable(16) %6, i8 0, i64 16, i1 false)
  tail call void @ft_mem_free(ptr noundef %9, ptr noundef nonnull %6) #22
  store ptr null, ptr %5, align 8
  br label %27

27:                                               ; preds = %1, %7
  %28 = getelementptr inbounds i8, ptr %0, i64 448
  %29 = load ptr, ptr %28, align 8
  tail call void @ft_mem_free(ptr noundef %4, ptr noundef %29) #22
  %30 = getelementptr inbounds i8, ptr %0, i64 440
  %31 = getelementptr inbounds i8, ptr %0, i64 464
  tail call void @llvm.memset.p0.i64(ptr noundef nonnull align 8 dereferenceable(16) %30, i8 0, i64 16, i1 false)
  %32 = load ptr, ptr %31, align 8
  tail call void @ft_mem_free(ptr noundef %4, ptr noundef %32) #22
  store ptr null, ptr %31, align 8
  %33 = getelementptr inbounds i8, ptr %0, i64 456
  store i16 0, ptr %33, align 8
  %34 = getelementptr inbounds i8, ptr %0, i64 472
  %35 = load ptr, ptr %34, align 8
  %.not.i = icmp eq ptr %35, null
  br i1 %.not.i, label %tt_glyphzone_done.exit, label %36

36:                                               ; preds = %27
  %37 = getelementptr inbounds i8, ptr %0, i64 520
  %38 = load ptr, ptr %37, align 8
  tail call void @ft_mem_free(ptr noundef nonnull %35, ptr noundef %38) #22
  store ptr null, ptr %37, align 8
  %39 = getelementptr inbounds i8, ptr %0, i64 512
  %40 = load ptr, ptr %39, align 8
  tail call void @ft_mem_free(ptr noundef nonnull %35, ptr noundef %40) #22
  store ptr null, ptr %39, align 8
  %41 = getelementptr inbounds i8, ptr %0, i64 496
  %42 = load ptr, ptr %41, align 8
  tail call void @ft_mem_free(ptr noundef nonnull %35, ptr noundef %42) #22
  store ptr null, ptr %41, align 8
  %43 = getelementptr inbounds i8, ptr %0, i64 488
  %44 = load ptr, ptr %43, align 8
  tail call void @ft_mem_free(ptr noundef nonnull %35, ptr noundef %44) #22
  store ptr null, ptr %43, align 8
  %45 = getelementptr inbounds i8, ptr %0, i64 504
  %46 = load ptr, ptr %45, align 8
  tail call void @ft_mem_free(ptr noundef nonnull %35, ptr noundef %46) #22
  store ptr null, ptr %45, align 8
  tail call void @llvm.memset.p0.i64(ptr noundef nonnull align 8 dereferenceable(16) %34, i8 0, i64 16, i1 false)
  br label %tt_glyphzone_done.exit

tt_glyphzone_done.exit:                           ; preds = %27, %36
  %47 = getelementptr inbounds i8, ptr %0, i64 264
  %48 = load ptr, ptr %47, align 8
  tail call void @ft_mem_free(ptr noundef %4, ptr noundef %48) #22
  store ptr null, ptr %47, align 8
  %49 = getelementptr inbounds i8, ptr %0, i64 280
  %50 = load ptr, ptr %49, align 8
  tail call void @ft_mem_free(ptr noundef %4, ptr noundef %50) #22
  %51 = getelementptr inbounds i8, ptr %0, i64 256
  store i32 0, ptr %51, align 8
  %52 = getelementptr inbounds i8, ptr %0, i64 260
  store i32 0, ptr %52, align 4
  %53 = getelementptr inbounds i8, ptr %0, i64 272
  %54 = getelementptr inbounds i8, ptr %0, i64 544
  tail call void @llvm.memset.p0.i64(ptr noundef nonnull align 8 dereferenceable(24) %53, i8 0, i64 24, i1 false)
  store i32 -1, ptr %54, align 8
  %55 = getelementptr inbounds i8, ptr %0, i64 548
  store i32 -1, ptr %55, align 4
  ret void
}